#include <math.h>
#include <stdio.h>
#include <stdlib.h>
#include <string.h>

int main()
{
	int n, sz[1000], k, j, i, m;
	scanf("%d %d", &n, &k);
	for(i=0;i<n;i++){
		if(i==0){
			scanf("%d", &sz[i]);
		}else{
		scanf(" %d", &sz[i]);
		}
	}
	for(i=0;i<n;i++){
		for(j=i+1;j<n;j++){
			if(sz[i]+sz[j]==k){
				printf("yes");
				m=1;
				break;
			}
		}if(m==1){
		break;
		}
	}if(m!=1){
	printf("no");
	}
     return 0;
}